target datalayout = "e-m:e-p270:32:32-p271:32:32-p272:64:64-i64:64-i128:128-f80:128-n8:16:32:64-S128"
target triple = "x86_64-pc-linux-gnu"

%"class.marisa::grimoire::trie::LoudsTrie" = type { %"class.marisa::grimoire::vector::BitVector", %"class.marisa::grimoire::vector::BitVector", %"class.marisa::grimoire::vector::BitVector", %"class.marisa::grimoire::vector::Vector.4", %"class.marisa::grimoire::vector::FlatVector", %"class.marisa::grimoire::trie::Tail", %"class.marisa::scoped_ptr", %"class.marisa::grimoire::vector::Vector.8", i64, i64, %"class.marisa::grimoire::trie::Config", %"class.marisa::grimoire::io::Mapper" }
%"class.marisa::grimoire::vector::BitVector" = type { %"class.marisa::grimoire::vector::Vector", i64, i64, %"class.marisa::grimoire::vector::Vector.0", %"class.marisa::grimoire::vector::Vector.2", %"class.marisa::grimoire::vector::Vector.2" }
%"class.marisa::grimoire::vector::Vector" = type <{ %"class.marisa::scoped_array", ptr, ptr, i64, i64, i8, [7 x i8] }>
%"class.marisa::scoped_array" = type { ptr }
%"class.marisa::grimoire::vector::Vector.0" = type <{ %"class.marisa::scoped_array", ptr, ptr, i64, i64, i8, [7 x i8] }>
%"class.marisa::grimoire::vector::Vector.2" = type <{ %"class.marisa::scoped_array", ptr, ptr, i64, i64, i8, [7 x i8] }>
%"class.marisa::grimoire::vector::Vector.4" = type <{ %"class.marisa::scoped_array", ptr, ptr, i64, i64, i8, [7 x i8] }>
%"class.marisa::grimoire::vector::FlatVector" = type { %"class.marisa::grimoire::vector::Vector", i64, i32, i64 }
%"class.marisa::grimoire::trie::Tail" = type { %"class.marisa::grimoire::vector::Vector.6", %"class.marisa::grimoire::vector::BitVector" }
%"class.marisa::grimoire::vector::Vector.6" = type <{ %"class.marisa::scoped_array", ptr, ptr, i64, i64, i8, [7 x i8] }>
%"class.marisa::scoped_ptr" = type { ptr }
%"class.marisa::grimoire::vector::Vector.8" = type <{ %"class.marisa::scoped_array", ptr, ptr, i64, i64, i8, [7 x i8] }>
%"class.marisa::grimoire::trie::Config" = type <{ i64, i32, i32, i32, [4 x i8] }>
%"class.marisa::grimoire::io::Mapper" = type <{ ptr, ptr, i64, i64, i32, [4 x i8] }>

; Function Attrs: mustprogress nounwind uwtable
define linkonce_odr noundef i64 @_ZNK6marisa8grimoire6vector6VectorIcE10total_sizeEv(ptr noundef nonnull align 8 dereferenceable(41) %0) #5 comdat align 2 {
  %2 = alloca ptr, align 8
  store ptr %0, ptr %2, align 8
  %3 = load ptr, ptr %2, align 8
  %4 = getelementptr inbounds %"class.marisa::grimoire::vector::Vector.6", ptr %3, i32 0, i32 3
  %5 = load i64, ptr %4, align 8
  %6 = mul i64 1, %5
  ret i64 %6
}

; Function Attrs: mustprogress nounwind uwtable
define linkonce_odr noundef i64 @_ZNK6marisa8grimoire6vector6VectorIjE10total_sizeEv(ptr noundef nonnull align 8 dereferenceable(41) %0) #5 comdat align 2 {
  %2 = alloca ptr, align 8
  store ptr %0, ptr %2, align 8
  %3 = load ptr, ptr %2, align 8
  %4 = getelementptr inbounds %"class.marisa::grimoire::vector::Vector.2", ptr %3, i32 0, i32 3
  %5 = load i64, ptr %4, align 8
  %6 = mul i64 4, %5
  ret i64 %6
}

; Function Attrs: mustprogress nounwind uwtable
define linkonce_odr noundef i64 @_ZNK6marisa8grimoire6vector6VectorINS1_9RankIndexEE10total_sizeEv(ptr noundef nonnull align 8 dereferenceable(41) %0) #5 comdat align 2 {
  %2 = alloca ptr, align 8
  store ptr %0, ptr %2, align 8
  %3 = load ptr, ptr %2, align 8
  %4 = getelementptr inbounds %"class.marisa::grimoire::vector::Vector.0", ptr %3, i32 0, i32 3
  %5 = load i64, ptr %4, align 8
  %6 = mul i64 12, %5
  ret i64 %6
}

; Function Attrs: mustprogress nounwind uwtable
define linkonce_odr noundef i64 @_ZNK6marisa8grimoire6vector6VectorImE10total_sizeEv(ptr noundef nonnull align 8 dereferenceable(41) %0) #5 comdat align 2 {
  %2 = alloca ptr, align 8
  store ptr %0, ptr %2, align 8
  %3 = load ptr, ptr %2, align 8
  %4 = getelementptr inbounds %"class.marisa::grimoire::vector::Vector", ptr %3, i32 0, i32 3
  %5 = load i64, ptr %4, align 8
  %6 = mul i64 8, %5
  ret i64 %6
}

; Function Attrs: mustprogress nounwind uwtable
define linkonce_odr noundef i64 @_ZNK6marisa8grimoire6vector6VectorINS0_4trie5CacheEE10total_sizeEv(ptr noundef nonnull align 8 dereferenceable(41) %0) #5 comdat align 2 {
  %2 = alloca ptr, align 8
  store ptr %0, ptr %2, align 8
  %3 = load ptr, ptr %2, align 8
  %4 = getelementptr inbounds %"class.marisa::grimoire::vector::Vector.8", ptr %3, i32 0, i32 3
  %5 = load i64, ptr %4, align 8
  %6 = mul i64 12, %5
  ret i64 %6
}

; Function Attrs: mustprogress nounwind uwtable
define linkonce_odr noundef ptr @_ZNK6marisa10scoped_ptrINS_8grimoire4trie9LoudsTrieEEptEv(ptr noundef nonnull align 8 dereferenceable(8) %0) #5 comdat align 2 {
  %2 = alloca ptr, align 8
  store ptr %0, ptr %2, align 8
  %3 = load ptr, ptr %2, align 8
  %4 = getelementptr inbounds %"class.marisa::scoped_ptr", ptr %3, i32 0, i32 0
  %5 = load ptr, ptr %4, align 8
  ret ptr %5
}

; Function Attrs: mustprogress nounwind uwtable
define linkonce_odr noundef ptr @_ZNK6marisa10scoped_ptrINS_8grimoire4trie9LoudsTrieEE3getEv(ptr noundef nonnull align 8 dereferenceable(8) %0) #5 comdat align 2 {
  %2 = alloca ptr, align 8
  store ptr %0, ptr %2, align 8
  %3 = load ptr, ptr %2, align 8
  %4 = getelementptr inbounds %"class.marisa::scoped_ptr", ptr %3, i32 0, i32 0
  %5 = load ptr, ptr %4, align 8
  ret ptr %5
}

; Function Attrs: mustprogress uwtable
define linkonce_odr noundef i64 @_ZNK6marisa8grimoire4trie4Tail10total_sizeEv(ptr noundef nonnull align 8 dereferenceable(256) %0) #4 comdat align 2 {
  %2 = alloca ptr, align 8
  store ptr %0, ptr %2, align 8
  %3 = load ptr, ptr %2, align 8
  %4 = getelementptr inbounds %"class.marisa::grimoire::trie::Tail", ptr %3, i32 0, i32 0
  %5 = call noundef i64 @_ZNK6marisa8grimoire6vector6VectorIcE10total_sizeEv(ptr noundef nonnull align 8 dereferenceable(41) %4)
  %6 = getelementptr inbounds %"class.marisa::grimoire::trie::Tail", ptr %3, i32 0, i32 1
  %7 = call noundef i64 @_ZNK6marisa8grimoire6vector9BitVector10total_sizeEv(ptr noundef nonnull align 8 dereferenceable(208) %6)
  %8 = add i64 %5, %7
  ret i64 %8
}

; Function Attrs: mustprogress nounwind uwtable
define linkonce_odr noundef i64 @_ZNK6marisa8grimoire6vector10FlatVector10total_sizeEv(ptr noundef nonnull align 8 dereferenceable(72) %0) #5 comdat align 2 {
  %2 = alloca ptr, align 8
  store ptr %0, ptr %2, align 8
  %3 = load ptr, ptr %2, align 8
  %4 = getelementptr inbounds %"class.marisa::grimoire::vector::FlatVector", ptr %3, i32 0, i32 0
  %5 = call noundef i64 @_ZNK6marisa8grimoire6vector6VectorImE10total_sizeEv(ptr noundef nonnull align 8 dereferenceable(41) %4)
  ret i64 %5
}

; Function Attrs: mustprogress nounwind uwtable
define linkonce_odr noundef i64 @_ZNK6marisa8grimoire6vector6VectorIhE10total_sizeEv(ptr noundef nonnull align 8 dereferenceable(41) %0) #5 comdat align 2 {
  %2 = alloca ptr, align 8
  store ptr %0, ptr %2, align 8
  %3 = load ptr, ptr %2, align 8
  %4 = getelementptr inbounds %"class.marisa::grimoire::vector::Vector.4", ptr %3, i32 0, i32 3
  %5 = load i64, ptr %4, align 8
  %6 = mul i64 1, %5
  ret i64 %6
}

; Function Attrs: mustprogress uwtable
define linkonce_odr noundef i64 @_ZNK6marisa8grimoire6vector9BitVector10total_sizeEv(ptr noundef nonnull align 8 dereferenceable(208) %0) #4 comdat align 2 {
  %2 = alloca ptr, align 8
  store ptr %0, ptr %2, align 8
  %3 = load ptr, ptr %2, align 8
  %4 = getelementptr inbounds %"class.marisa::grimoire::vector::BitVector", ptr %3, i32 0, i32 0
  %5 = call noundef i64 @_ZNK6marisa8grimoire6vector6VectorImE10total_sizeEv(ptr noundef nonnull align 8 dereferenceable(41) %4)
  %6 = getelementptr inbounds %"class.marisa::grimoire::vector::BitVector", ptr %3, i32 0, i32 3
  %7 = call noundef i64 @_ZNK6marisa8grimoire6vector6VectorINS1_9RankIndexEE10total_sizeEv(ptr noundef nonnull align 8 dereferenceable(41) %6)
  %8 = add i64 %5, %7
  %9 = getelementptr inbounds %"class.marisa::grimoire::vector::BitVector", ptr %3, i32 0, i32 4
  %10 = call noundef i64 @_ZNK6marisa8grimoire6vector6VectorIjE10total_sizeEv(ptr noundef nonnull align 8 dereferenceable(41) %9)
  %11 = add i64 %8, %10
  %12 = getelementptr inbounds %"class.marisa::grimoire::vector::BitVector", ptr %3, i32 0, i32 5
  %13 = call noundef i64 @_ZNK6marisa8grimoire6vector6VectorIjE10total_sizeEv(ptr noundef nonnull align 8 dereferenceable(41) %12)
  %14 = add i64 %11, %13
  ret i64 %14
}

; Function Attrs: mustprogress uwtable
define noundef i64 @_ZNK6marisa8grimoire4trie9LoudsTrie10total_sizeEv(ptr noundef nonnull align 8 dereferenceable(1136) %0) #4 align 2 {
  %2 = alloca ptr, align 8
  store ptr %0, ptr %2, align 8
  %3 = load ptr, ptr %2, align 8
  %4 = getelementptr inbounds %"class.marisa::grimoire::trie::LoudsTrie", ptr %3, i32 0, i32 0
  %5 = call noundef i64 @_ZNK6marisa8grimoire6vector9BitVector10total_sizeEv(ptr noundef nonnull align 8 dereferenceable(208) %4)
  %6 = getelementptr inbounds %"class.marisa::grimoire::trie::LoudsTrie", ptr %3, i32 0, i32 1
  %7 = call noundef i64 @_ZNK6marisa8grimoire6vector9BitVector10total_sizeEv(ptr noundef nonnull align 8 dereferenceable(208) %6)
  %8 = add i64 %5, %7
  %9 = getelementptr inbounds %"class.marisa::grimoire::trie::LoudsTrie", ptr %3, i32 0, i32 2
  %10 = call noundef i64 @_ZNK6marisa8grimoire6vector9BitVector10total_sizeEv(ptr noundef nonnull align 8 dereferenceable(208) %9)
  %11 = add i64 %8, %10
  %12 = getelementptr inbounds %"class.marisa::grimoire::trie::LoudsTrie", ptr %3, i32 0, i32 3
  %13 = call noundef i64 @_ZNK6marisa8grimoire6vector6VectorIhE10total_sizeEv(ptr noundef nonnull align 8 dereferenceable(41) %12)
  %14 = add i64 %11, %13
  %15 = getelementptr inbounds %"class.marisa::grimoire::trie::LoudsTrie", ptr %3, i32 0, i32 4
  %16 = call noundef i64 @_ZNK6marisa8grimoire6vector10FlatVector10total_sizeEv(ptr noundef nonnull align 8 dereferenceable(72) %15)
  %17 = add i64 %14, %16
  %18 = getelementptr inbounds %"class.marisa::grimoire::trie::LoudsTrie", ptr %3, i32 0, i32 5
  %19 = call noundef i64 @_ZNK6marisa8grimoire4trie4Tail10total_sizeEv(ptr noundef nonnull align 8 dereferenceable(256) %18)
  %20 = add i64 %17, %19
  %21 = getelementptr inbounds %"class.marisa::grimoire::trie::LoudsTrie", ptr %3, i32 0, i32 6
  %22 = call noundef ptr @_ZNK6marisa10scoped_ptrINS_8grimoire4trie9LoudsTrieEE3getEv(ptr noundef nonnull align 8 dereferenceable(8) %21)
  %23 = icmp ne ptr %22, null
  br i1 %23, label %24, label %28

24:                                               ; preds = %1
  %25 = getelementptr inbounds %"class.marisa::grimoire::trie::LoudsTrie", ptr %3, i32 0, i32 6
  %26 = call noundef ptr @_ZNK6marisa10scoped_ptrINS_8grimoire4trie9LoudsTrieEEptEv(ptr noundef nonnull align 8 dereferenceable(8) %25)
  %27 = call noundef i64 @_ZNK6marisa8grimoire4trie9LoudsTrie10total_sizeEv(ptr noundef nonnull align 8 dereferenceable(1136) %26)
  br label %29

28:                                               ; preds = %1
  br label %29

29:                                               ; preds = %28, %24
  %30 = phi i64 [ %27, %24 ], [ 0, %28 ]
  %31 = add i64 %20, %30
  %32 = getelementptr inbounds %"class.marisa::grimoire::trie::LoudsTrie", ptr %3, i32 0, i32 7
  %33 = call noundef i64 @_ZNK6marisa8grimoire6vector6VectorINS0_4trie5CacheEE10total_sizeEv(ptr noundef nonnull align 8 dereferenceable(41) %32)
  %34 = add i64 %31, %33
  ret i64 %34
}