; Function Attrs: mustprogress nofree nosync nounwind willreturn memory(read, inaccessiblemem: none) uwtable
define noundef i64 @_ZNK6marisa8grimoire4trie9LoudsTrie10total_sizeEv(ptr nocapture noundef nonnull readonly align 8 dereferenceable(1136) %0) local_unnamed_addr #5 align 2 {
  %2 = getelementptr inbounds i8, ptr %0, i64 24
  %3 = load i64, ptr %2, align 8
  %4 = getelementptr inbounds i8, ptr %0, i64 88
  %5 = load i64, ptr %4, align 8
  %6 = getelementptr inbounds i8, ptr %0, i64 136
  %7 = load i64, ptr %6, align 8
  %8 = getelementptr inbounds i8, ptr %0, i64 184
  %9 = load i64, ptr %8, align 8
  %10 = getelementptr inbounds i8, ptr %0, i64 232
  %11 = load i64, ptr %10, align 8
  %12 = getelementptr inbounds i8, ptr %0, i64 296
  %13 = load i64, ptr %12, align 8
  %14 = getelementptr inbounds i8, ptr %0, i64 344
  %15 = load i64, ptr %14, align 8
  %16 = getelementptr inbounds i8, ptr %0, i64 392
  %17 = load i64, ptr %16, align 8
  %18 = getelementptr inbounds i8, ptr %0, i64 440
  %19 = load i64, ptr %18, align 8
  %20 = getelementptr inbounds i8, ptr %0, i64 504
  %21 = load i64, ptr %20, align 8
  %22 = getelementptr inbounds i8, ptr %0, i64 552
  %23 = load i64, ptr %22, align 8
  %24 = getelementptr inbounds i8, ptr %0, i64 600
  %25 = load i64, ptr %24, align 8
  %26 = getelementptr inbounds i8, ptr %0, i64 648
  %27 = load i64, ptr %26, align 8
  %28 = getelementptr inbounds i8, ptr %0, i64 696
  %29 = load i64, ptr %28, align 8
  %30 = getelementptr inbounds i8, ptr %0, i64 768
  %31 = load i64, ptr %30, align 8
  %32 = getelementptr inbounds i8, ptr %0, i64 816
  %33 = load i64, ptr %32, align 8
  %34 = getelementptr inbounds i8, ptr %0, i64 880
  %35 = load i64, ptr %34, align 8
  %36 = getelementptr inbounds i8, ptr %0, i64 928
  %37 = load i64, ptr %36, align 8
  %38 = getelementptr inbounds i8, ptr %0, i64 976
  %39 = load i64, ptr %38, align 8
  %40 = getelementptr inbounds i8, ptr %0, i64 1000
  %41 = load ptr, ptr %40, align 8
  %.not = icmp eq ptr %41, null
  br i1 %.not, label %44, label %42

42:                                               ; preds = %1
  %43 = tail call noundef i64 @_ZNK6marisa8grimoire4trie9LoudsTrie10total_sizeEv(ptr noundef nonnull align 8 dereferenceable(1136) %41)
  br label %44

44:                                               ; preds = %1, %42
  %45 = phi i64 [ %43, %42 ], [ 0, %1 ]
  %46 = getelementptr inbounds i8, ptr %0, i64 1032
  %47 = load i64, ptr %46, align 8
  %reass.add = add i64 %13, %5
  %reass.add5 = add i64 %reass.add, %21
  %reass.add6 = add i64 %reass.add5, %35
  %reass.add7 = add i64 %reass.add6, %47
  %reass.mul = mul i64 %reass.add7, 12
  %reass.add8 = add i64 %11, %3
  %reass.add9 = add i64 %reass.add8, %19
  %reass.add10 = add i64 %reass.add9, %29
  %reass.add11 = add i64 %reass.add10, %33
  %reass.mul12 = shl i64 %reass.add11, 3
  %reass.add.i1 = add i64 %9, %7
  %reass.add.i3 = add i64 %reass.add.i1, %15
  %reass.add.i.i = add i64 %reass.add.i3, %17
  %reass.add13 = add i64 %reass.add.i.i, %23
  %reass.add14 = add i64 %reass.add13, %25
  %reass.add.i = add i64 %reass.add14, %37
  %reass.add15 = add i64 %reass.add.i, %39
  %reass.mul16 = shl i64 %reass.add15, 2
  %48 = add i64 %31, %27
  %49 = add i64 %48, %reass.mul12
  %50 = add i64 %49, %reass.mul16
  %51 = add i64 %50, %45
  %52 = add i64 %51, %reass.mul
  ret i64 %52
}